; Function Attrs: nounwind uwtable
define internal i32 @test_ASN1_OCTET_STRING_set() #1 {
  %1 = tail call noalias ptr @CRYPTO_zalloc(i64 noundef 32, ptr noundef nonnull @.str.3, i32 noundef 28) #3
  %2 = tail call i32 @test_ptr(ptr noundef nonnull @.str.3, i32 noundef 28, ptr noundef nonnull @.str.4, ptr noundef %1) #3
  %.not.i = icmp eq i32 %2, 0
  br i1 %.not.i, label %set_up.exit.thread, label %set_up.exit

set_up.exit:                                      ; preds = %0
  store ptr @.str.1, ptr %1, align 8, !tbaa !4
  %3 = getelementptr inbounds nuw i8, ptr %1, i64 8
  store i32 1, ptr %3, align 8, !tbaa !12
  %4 = tail call ptr @ASN1_OCTET_STRING_new() #3
  %5 = getelementptr inbounds nuw i8, ptr %1, i64 24
  store ptr %4, ptr %5, align 8, !tbaa !14
  %6 = tail call i32 @test_ptr(ptr noundef nonnull @.str.3, i32 noundef 96, ptr noundef nonnull @.str.11, ptr noundef %4) #3
  %.not = icmp eq i32 %6, 0
  br i1 %.not, label %17, label %7

7:                                                ; preds = %set_up.exit
  %8 = tail call ptr @ASN1_OCTET_STRING_new() #3
  %9 = getelementptr inbounds nuw i8, ptr %1, i64 16
  store ptr %8, ptr %9, align 8, !tbaa !13
  %10 = tail call i32 @test_ptr(ptr noundef nonnull @.str.3, i32 noundef 97, ptr noundef nonnull @.str.12, ptr noundef %8) #3
  %.not13 = icmp eq i32 %10, 0
  br i1 %.not13, label %17, label %11

11:                                               ; preds = %7
  %12 = load ptr, ptr %9, align 8, !tbaa !13
  %13 = tail call i32 @ASN1_OCTET_STRING_set(ptr noundef %12, ptr noundef nonnull @rand_data, i32 noundef 16) #3
  %14 = icmp ne i32 %13, 0
  %15 = zext i1 %14 to i32
  %16 = tail call i32 @test_true(ptr noundef nonnull @.str.3, i32 noundef 99, ptr noundef nonnull @.str.13, i32 noundef %15) #3
  %.not14 = icmp eq i32 %16, 0
  br i1 %.not14, label %17, label %22

17:                                               ; preds = %11, %7, %set_up.exit
  %18 = getelementptr inbounds nuw i8, ptr %1, i64 16
  %19 = load ptr, ptr %18, align 8, !tbaa !13
  tail call void @ASN1_OCTET_STRING_free(ptr noundef %19) #3
  %20 = load ptr, ptr %5, align 8, !tbaa !14
  %21 = load ptr, ptr %18, align 8, !tbaa !13
  %.not.i16 = icmp eq ptr %20, %21
  br i1 %.not.i16, label %set_up.exit.thread.sink.split, label %set_up.exit.thread.sink.split.sink.split

22:                                               ; preds = %11
  %23 = load i32, ptr %3, align 8, !tbaa !12
  %24 = load ptr, ptr %9, align 8, !tbaa !13
  %25 = tail call i32 @ossl_cmp_asn1_octet_string_set1(ptr noundef nonnull %5, ptr noundef %24) #3
  %26 = tail call i32 @test_int_eq(ptr noundef nonnull @.str.3, i32 noundef 84, ptr noundef nonnull @.str.14, ptr noundef nonnull @.str.15, i32 noundef %23, i32 noundef %25) #3
  %.not.i17 = icmp eq i32 %26, 0
  br i1 %.not.i17, label %execute_CMP_ASN1_OCTET_STRING_set1_test.exit, label %27

27:                                               ; preds = %22
  %28 = load i32, ptr %3, align 8, !tbaa !12
  %.not6.i = icmp eq i32 %28, 0
  br i1 %.not6.i, label %execute_CMP_ASN1_OCTET_STRING_set1_test.exit, label %29

29:                                               ; preds = %27
  %30 = load ptr, ptr %5, align 8, !tbaa !14
  %31 = load ptr, ptr %9, align 8, !tbaa !13
  %32 = tail call i32 @ASN1_OCTET_STRING_cmp(ptr noundef %30, ptr noundef %31) #3
  %33 = tail call i32 @test_int_eq(ptr noundef nonnull @.str.3, i32 noundef 88, ptr noundef nonnull @.str.16, ptr noundef nonnull @.str.17, i32 noundef 0, i32 noundef %32) #3
  br label %execute_CMP_ASN1_OCTET_STRING_set1_test.exit

execute_CMP_ASN1_OCTET_STRING_set1_test.exit:     ; preds = %22, %27, %29
  %.0.i18 = phi i32 [ %33, %29 ], [ 0, %22 ], [ 1, %27 ]
  %34 = load ptr, ptr %9, align 8, !tbaa !13
  tail call void @ASN1_OCTET_STRING_free(ptr noundef %34) #3
  %35 = load ptr, ptr %5, align 8, !tbaa !14
  %36 = load ptr, ptr %9, align 8, !tbaa !13
  %.not.i19 = icmp eq ptr %35, %36
  br i1 %.not.i19, label %set_up.exit.thread.sink.split, label %set_up.exit.thread.sink.split.sink.split

set_up.exit.thread.sink.split.sink.split:         ; preds = %execute_CMP_ASN1_OCTET_STRING_set1_test.exit, %17
  %.sink = phi ptr [ %20, %17 ], [ %35, %execute_CMP_ASN1_OCTET_STRING_set1_test.exit ]
  %.011.ph.ph = phi i32 [ 0, %17 ], [ %.0.i18, %execute_CMP_ASN1_OCTET_STRING_set1_test.exit ]
  tail call void @ASN1_OCTET_STRING_free(ptr noundef %.sink) #3
  br label %set_up.exit.thread.sink.split

set_up.exit.thread.sink.split:                    ; preds = %set_up.exit.thread.sink.split.sink.split, %execute_CMP_ASN1_OCTET_STRING_set1_test.exit, %17
  %.011.ph = phi i32 [ 0, %17 ], [ %.0.i18, %execute_CMP_ASN1_OCTET_STRING_set1_test.exit ], [ %.011.ph.ph, %set_up.exit.thread.sink.split.sink.split ]
  tail call void @CRYPTO_free(ptr noundef nonnull %1, ptr noundef nonnull @.str.3, i32 noundef 40) #3
  br label %set_up.exit.thread

set_up.exit.thread:                               ; preds = %set_up.exit.thread.sink.split, %0
  %.011 = phi i32 [ 0, %0 ], [ %.011.ph, %set_up.exit.thread.sink.split ]
  ret i32 %.011
}